; Function Attrs: mustprogress uwtable
define hidden void @_ZN14context_paramsC2Ev(ptr noundef nonnull align 8 dereferenceable(120) %this) unnamed_addr #3 align 2 personality ptr @__gxx_personality_v0 {
entry:
  %ref.tmp = alloca %"class.std::allocator", align 1
  store i32 0, ptr %this, align 8
  %m_timeout = getelementptr inbounds i8, ptr %this, i64 4
  store i32 -1, ptr %m_timeout, align 4
  %m_dot_proof_file = getelementptr inbounds i8, ptr %this, i64 8
  tail call void @_ZNSt7__cxx1112basic_stringIcSt11char_traitsIcESaIcEEC1Ev(ptr noundef nonnull align 8 dereferenceable(32) %m_dot_proof_file) #11
  %m_trace_file_name = getelementptr inbounds i8, ptr %this, i64 40
  tail call void @_ZNSt7__cxx1112basic_stringIcSt11char_traitsIcESaIcEEC1Ev(ptr noundef nonnull align 8 dereferenceable(32) %m_trace_file_name) #11
  %m_auto_config = getelementptr inbounds i8, ptr %this, i64 72
  store i8 1, ptr %m_auto_config, align 8
  %m_proof = getelementptr inbounds i8, ptr %this, i64 73
  %m_model = getelementptr inbounds i8, ptr %this, i64 77
  store i32 0, ptr %m_proof, align 1
  store i8 1, ptr %m_model, align 1
  %m_model_validate = getelementptr inbounds i8, ptr %this, i64 78
  %m_encoding = getelementptr inbounds i8, ptr %this, i64 88
  tail call void @llvm.memset.p0.i64(ptr noundef nonnull align 2 dereferenceable(5) %m_model_validate, i8 0, i64 5, i1 false)
  call void @_ZNSaIcEC1Ev(ptr noundef nonnull align 1 dereferenceable(1) %ref.tmp) #11
  %call.i2 = invoke noundef ptr @_ZNSt7__cxx1112basic_stringIcSt11char_traitsIcESaIcEE13_M_local_dataEv(ptr noundef nonnull align 8 dereferenceable(32) %m_encoding)
          to label %call.i.noexc unwind label %lpad

call.i.noexc:                                     ; preds = %entry
  invoke void @_ZNSt7__cxx1112basic_stringIcSt11char_traitsIcESaIcEE12_Alloc_hiderC1EPcRKS3_(ptr noundef nonnull align 8 dereferenceable(8) %m_encoding, ptr noundef %call.i2, ptr noundef nonnull align 1 dereferenceable(1) %ref.tmp)
          to label %.noexc unwind label %lpad

.noexc:                                           ; preds = %call.i.noexc
  invoke void @_ZNSt7__cxx1112basic_stringIcSt11char_traitsIcESaIcEE12_M_constructIPKcEEvT_S8_St20forward_iterator_tag(ptr noundef nonnull align 8 dereferenceable(32) %m_encoding, ptr noundef nonnull @.str, ptr noundef nonnull getelementptr inbounds ([8 x i8], ptr @.str, i64 0, i64 7))
          to label %invoke.cont unwind label %lpad.i

lpad.i:                                           ; preds = %.noexc
  %0 = landingpad { ptr, i32 }
          cleanup
  call void @_ZNSaIcED2Ev(ptr noundef nonnull align 1 dereferenceable(1) %m_encoding) #11
  br label %lpad.body

invoke.cont:                                      ; preds = %.noexc
  call void @_ZNSaIcED1Ev(ptr noundef nonnull align 1 dereferenceable(1) %ref.tmp) #11
  %call.i4 = invoke noundef nonnull align 8 dereferenceable(8) ptr @_ZN7gparams7get_refEv()
          to label %call.i.noexc3 unwind label %lpad2

call.i.noexc3:                                    ; preds = %invoke.cont
  invoke void @_ZN14context_params11updt_paramsERK10params_ref(ptr noundef nonnull align 8 dereferenceable(120) %this, ptr noundef nonnull align 8 dereferenceable(8) %call.i4)
          to label %invoke.cont3 unwind label %lpad2

invoke.cont3:                                     ; preds = %call.i.noexc3
  ret void

lpad:                                             ; preds = %call.i.noexc, %entry
  %1 = landingpad { ptr, i32 }
          cleanup
  br label %lpad.body

lpad.body:                                        ; preds = %lpad.i, %lpad
  %eh.lpad-body = phi { ptr, i32 } [ %1, %lpad ], [ %0, %lpad.i ]
  call void @_ZNSaIcED1Ev(ptr noundef nonnull align 1 dereferenceable(1) %ref.tmp) #11
  br label %ehcleanup

lpad2:                                            ; preds = %call.i.noexc3, %invoke.cont
  %2 = landingpad { ptr, i32 }
          cleanup
  call void @_ZNSt7__cxx1112basic_stringIcSt11char_traitsIcESaIcEED1Ev(ptr noundef nonnull align 8 dereferenceable(32) %m_encoding) #11
  br label %ehcleanup

ehcleanup:                                        ; preds = %lpad2, %lpad.body
  %.pn = phi { ptr, i32 } [ %2, %lpad2 ], [ %eh.lpad-body, %lpad.body ]
  call void @_ZNSt7__cxx1112basic_stringIcSt11char_traitsIcESaIcEED1Ev(ptr noundef nonnull align 8 dereferenceable(32) %m_trace_file_name) #11
  call void @_ZNSt7__cxx1112basic_stringIcSt11char_traitsIcESaIcEED1Ev(ptr noundef nonnull align 8 dereferenceable(32) %m_dot_proof_file) #11
  resume { ptr, i32 } %.pn
}